(lp0
F0.11928020975757692
aF-0.027917556297553183
aF-0.14885473802829716
a.(lp0
F0.106795674530088
aF-0.028092562643355704
aF-0.14841897280794078
a.(lp0
F0.09517457408274971
aF-0.028924253942514747
aF-0.14714951137581048
a.(lp0
F0.08311798511543231
aF-0.02973596286741033
aF-0.14606968191633696
a.(lp0
F0.0705739160926504
aF-0.0309856548194841
aF-0.14488918932204659
a.(lp0
F0.059387713071478394
aF-0.03198008950985975
aF-0.1438186965184696
a.(lp0
F0.11846254581339699
aF-0.015908235141932372
aF-0.14898205141126053
a.(lp0
F0.10697611637285621
aF-0.016508391981280436
aF-0.14880673678775413
a.(lp0
F0.09397225111259247
aF-0.01765690480851714
aF-0.14749835376362713
a.(lp0
F0.08116784683750981
aF-0.01821960346249713
aF-0.1449687803750953
a.(lp0
F0.06994825578917954
aF-0.01942036292544032
aF-0.14478340466812695
a.(lp0
F0.05788304610069781
aF-0.020540089610887532
aF-0.14396181771697297
a.(lp0
F0.11653406184183694
aF-0.003921878842725411
aF-0.148968983824279
a.(lp0
F0.10478345686590486
aF-0.005492509668318104
aF-0.14837786848637735
a.(lp0
F0.09207434372505942
aF-0.006005157197494501
aF-0.1477105138056856
a.(lp0
F0.08068073230509759
aF-0.006420124849651779
aF-0.1460635722611827
a.(lp0
F0.06822508251720781
aF-0.008311266460523312
aF-0.1446554626854603
a.(lp0
F0.05644903165387897
aF-0.009105075486342304
aF-0.14376541078023766
a.(lp0
F0.11550354763008658
aF0.007603595816661399
aF-0.14940312121314395
a.(lp0
F0.10377172820007577
aF0.006850865369789908
aF-0.1485813610289686
a.(lp0
F0.09106275745677932
aF0.006162549922813207
aF-0.14705816842187855
a.(lp0
F0.07916784116657714
aF0.004279130065708622
aF-0.14615315837833964
a.(lp0
F0.06741739705250545
aF0.003768064522073412
aF-0.1450068738255914
a.(lp0
F0.055293473815791035
aF0.002659347690241542
aF-0.14410167763181503
a.(lp0
F0.11425736897177312
aF0.02002109008793947
aF-0.14949713094634987
a.(lp0
F0.10385856205974665
aF0.01834331335982671
aF-0.14819381452477356
a.(lp0
F0.09071938681235008
aF0.01726910631146451
aF-0.14694609742080575
a.(lp0
F0.07866003342050296
aF0.01704588003242448
aF-0.14604964216926494
a.(lp0
F0.06654036004636657
aF0.01582876760746772
aF-0.144559154040547
a.(lp0
F0.05460001395770951
aF0.014505023297992366
aF-0.1433368031333704
a.