(lp0
F0.09147818761706195
aF0.034717303282099134
aF-0.14211857113137943
a.(lp0
F0.08195924823401239
aF0.03288972897066714
aF-0.14083923561946016
a.(lp0
F0.07279886602541324
aF0.032393488145090035
aF-0.1400961923310297
a.(lp0
F0.06268437299268961
aF0.031056210812718612
aF-0.13958820656618054
a.(lp0
F0.05248562074756698
aF0.030215957091111297
aF-0.13895009906370742
a.(lp0
F0.09001299559960002
aF0.043449551814061814
aF-0.14152623194549174
a.(lp0
F0.08100025397904925
aF0.042997959312148636
aF-0.14076594318646912
a.(lp0
F0.07081216729160895
aF0.04113595146889435
aF-0.1402548169411242
a.(lp0
F0.060961158241515136
aF0.04055093993575525
aF-0.13985058733799519
a.(lp0
F0.050839105330327004
aF0.039209797970873525
aF-0.13922652921454906
a.(lp0
F0.08875145564454738
aF0.052410741099364264
aF-0.14216815802033192
a.(lp0
F0.07932144326841249
aF0.05225378131513065
aF-0.14113381052112922
a.(lp0
F0.07048408796178765
aF0.05057049250980257
aF-0.1402622516457721
a.(lp0
F0.059507577623367156
aF0.04931173401713736
aF-0.1399143026648841
a.(lp0
F0.05102866993886698
aF0.04869471427807788
aF-0.13882645530194784
a.(lp0
F0.0882964153643826
aF0.06268514750341968
aF-0.14165308049611192
a.(lp0
F0.07868625661128285
aF0.06159938691446863
aF-0.14052138459090843
a.(lp0
F0.06896331307991571
aF0.06005732659165617
aF-0.14024957532057392
a.(lp0
F0.059402623104008345
aF0.05967392403659457
aF-0.13871382690064585
a.(lp0
F0.04975605532521861
aF0.05832544290345624
aF-0.13833956178349516
a.(lp0
F0.08846893443620549
aF0.07311454932580408
aF-0.14115061714814217
a.(lp0
F0.07836192268068098
aF0.07134109682543081
aF-0.140774858328324
a.(lp0
F0.06828688213929525
aF0.07070830517843589
aF-0.13951608736690121
a.(lp0
F0.05840975269195846
aF0.06923992239628786
aF-0.13885294961095987
a.(lp0
F0.049229279629154174
aF0.06796576421126946
aF-0.1381044062253444
a.