(lp0
F0.09102139109347189
aF0.03435948491144407
aF-0.14329791952369866
a.(lp0
F0.0816319419820225
aF0.03253024934263695
aF-0.1427126461749039
a.(lp0
F0.07112132883233394
aF0.03159464866032898
aF-0.1420485525575926
a.(lp0
F0.06150494347346364
aF0.03038837517801773
aF-0.14132427333051156
a.(lp0
F0.05183019687524612
aF0.029621627395835386
aF-0.14036826743819514
a.(lp0
F0.09003883863166758
aF0.04350338095673868
aF-0.14317156916957652
a.(lp0
F0.07931151968039839
aF0.042265999234637974
aF-0.1434400287282182
a.(lp0
F0.07041579530619102
aF0.04141811813119103
aF-0.142027886531212
a.(lp0
F0.06036424523553505
aF0.040180385905697724
aF-0.14141111359268596
a.(lp0
F0.05045633891435921
aF0.039178140436486854
aF-0.14108495348867361
a.(lp0
F0.08885505956445716
aF0.05361886035000771
aF-0.14341936456216325
a.(lp0
F0.0793833971391634
aF0.05193025457314148
aF-0.14346329743774575
a.(lp0
F0.07008639309234722
aF0.050983005367251116
aF-0.14201219308179894
a.(lp0
F0.059707667072915235
aF0.050472738841608446
aF-0.14081815420078192
a.(lp0
F0.04973719761607546
aF0.04914910801135117
aF-0.1406408060892801
a.(lp0
F0.08874258923788704
aF0.06308912746385845
aF-0.14331134902877654
a.(lp0
F0.07796989459731132
aF0.06166380240356001
aF-0.14239900538032507
a.(lp0
F0.06785404918202062
aF0.060721689131061324
aF-0.14266987352200064
a.(lp0
F0.058958946516672495
aF0.059034215323577624
aF-0.14173830282699373
a.(lp0
F0.04886507812368577
aF0.057322321980924185
aF-0.14085511804162434
a.(lp0
F0.08696433386144702
aF0.07298029712078283
aF-0.14306778405805326
a.(lp0
F0.0773194247889644
aF0.071462933439791
aF-0.1422894095744397
a.(lp0
F0.06783296822650114
aF0.0702399800638902
aF-0.14192946692873035
a.(lp0
F0.05866056039442137
aF0.06927800364410298
aF-0.14117273773004033
a.(lp0
F0.048588271448755646
aF0.0683618011403044
aF-0.14049036638676413
a.